; ModuleID = 'source-C-CXX/46/4795.cpp'
source_filename = "source-C-CXX/46/4795.cpp"
target datalayout = "e-m:e-p270:32:32-p271:32:32-p272:64:64-i64:64-f80:128-n8:16:32:64-S128"
target triple = "x86_64-pc-linux-gnu"

%"class.std::ios_base::Init" = type { i8 }
%"class.std::basic_istream" = type { i32 (...)**, i64, %"class.std::basic_ios" }
%"class.std::basic_ios" = type { %"class.std::ios_base", %"class.std::basic_ostream"*, i8, i8, %"class.std::basic_streambuf"*, %"class.std::ctype"*, %"class.std::num_put"*, %"class.std::num_get"* }
%"class.std::ios_base" = type { i32 (...)**, i64, i64, i32, i32, i32, %"struct.std::ios_base::_Callback_list"*, %"struct.std::ios_base::_Words", [8 x %"struct.std::ios_base::_Words"], i32, %"struct.std::ios_base::_Words"*, %"class.std::locale" }
%"struct.std::ios_base::_Callback_list" = type { %"struct.std::ios_base::_Callback_list"*, void (i32, %"class.std::ios_base"*, i32)*, i32, i32 }
%"struct.std::ios_base::_Words" = type { i8*, i64 }
%"class.std::locale" = type { %"class.std::locale::_Impl"* }
%"class.std::locale::_Impl" = type { i32, %"class.std::locale::facet"**, i64, %"class.std::locale::facet"**, i8** }
%"class.std::locale::facet" = type <{ i32 (...)**, i32, [4 x i8] }>
%"class.std::basic_ostream" = type { i32 (...)**, %"class.std::basic_ios" }
%"class.std::basic_streambuf" = type { i32 (...)**, i8*, i8*, i8*, i8*, i8*, i8*, %"class.std::locale" }
%"class.std::ctype" = type <{ %"class.std::locale::facet.base", [4 x i8], %struct.__locale_struct*, i8, [7 x i8], i32*, i32*, i16*, i8, [256 x i8], [256 x i8], i8, [6 x i8] }>
%"class.std::locale::facet.base" = type <{ i32 (...)**, i32 }>
%struct.__locale_struct = type { [13 x %struct.__locale_data*], i16*, i32*, i32*, [13 x i8*] }
%struct.__locale_data = type opaque
%"class.std::num_put" = type { %"class.std::locale::facet.base", [4 x i8] }
%"class.std::num_get" = type { %"class.std::locale::facet.base", [4 x i8] }

@_ZStL8__ioinit = internal global %"class.std::ios_base::Init" zeroinitializer, align 1
@__dso_handle = external hidden global i8
@_ZSt3cin = external global %"class.std::basic_istream", align 8
@_ZSt4cout = external global %"class.std::basic_ostream", align 8
@.str = private unnamed_addr constant [2 x i8] c" \00", align 1
@llvm.global_ctors = appending global [1 x { i32, void ()*, i8* }] [{ i32, void ()*, i8* } { i32 65535, void ()* @_GLOBAL__sub_I_4795.cpp, i8* null }]

declare void @_ZNSt8ios_base4InitC1Ev(%"class.std::ios_base::Init"* nonnull align 1 dereferenceable(1)) unnamed_addr #0

; Function Attrs: nounwind
declare void @_ZNSt8ios_base4InitD1Ev(%"class.std::ios_base::Init"* nonnull align 1 dereferenceable(1)) unnamed_addr #1

; Function Attrs: nofree nounwind
declare i32 @__cxa_atexit(void (i8*)*, i8*, i8*) local_unnamed_addr #2

; Function Attrs: mustprogress norecurse sspstrong uwtable
define dso_local i32 @main() local_unnamed_addr #3 {
  %1 = alloca i32, align 4
  %2 = alloca [100 x i32], align 16
  %3 = alloca [100 x i32], align 16
  %4 = bitcast i32* %1 to i8*
  call void @llvm.lifetime.start.p0i8(i64 4, i8* nonnull %4) #7
  %5 = bitcast [100 x i32]* %2 to i8*
  call void @llvm.lifetime.start.p0i8(i64 400, i8* nonnull %5) #7
  %6 = bitcast [100 x i32]* %3 to i8*
  call void @llvm.lifetime.start.p0i8(i64 400, i8* nonnull %6) #7
  %7 = call nonnull align 8 dereferenceable(16) %"class.std::basic_istream"* @_ZNSirsERi(%"class.std::basic_istream"* nonnull align 8 dereferenceable(16) @_ZSt3cin, i32* nonnull align 4 dereferenceable(4) %1)
  %8 = load i32, i32* %1, align 4, !tbaa !5
  %9 = icmp sgt i32 %8, 0
  br i1 %9, label %114, label %156

10:                                               ; preds = %114
  %11 = icmp sgt i32 %119, 0
  br i1 %11, label %12, label %156

12:                                               ; preds = %10
  %13 = zext i32 %119 to i64
  %14 = icmp ult i32 %119, 8
  br i1 %14, label %96, label %15

15:                                               ; preds = %12
  %16 = add nsw i64 %13, -1
  %17 = add i32 %119, -1
  %18 = trunc i64 %16 to i32
  %19 = sub i32 %17, %18
  %20 = icmp sgt i32 %19, %17
  %21 = icmp ugt i64 %16, 4294967295
  %22 = or i1 %20, %21
  br i1 %22, label %96, label %23

23:                                               ; preds = %15
  %24 = and i64 %13, 4294967288
  %25 = add nsw i64 %24, -8
  %26 = lshr exact i64 %25, 3
  %27 = add nuw nsw i64 %26, 1
  %28 = and i64 %27, 1
  %29 = icmp eq i64 %25, 0
  br i1 %29, label %73, label %30

30:                                               ; preds = %23
  %31 = and i64 %27, 4611686018427387902
  br label %32

32:                                               ; preds = %32, %30
  %33 = phi i64 [ 0, %30 ], [ %70, %32 ]
  %34 = phi i64 [ %31, %30 ], [ %71, %32 ]
  %35 = getelementptr inbounds [100 x i32], [100 x i32]* %2, i64 0, i64 %33
  %36 = bitcast i32* %35 to <4 x i32>*
  %37 = load <4 x i32>, <4 x i32>* %36, align 16, !tbaa !5
  %38 = getelementptr inbounds i32, i32* %35, i64 4
  %39 = bitcast i32* %38 to <4 x i32>*
  %40 = load <4 x i32>, <4 x i32>* %39, align 16, !tbaa !5
  %41 = trunc i64 %33 to i32
  %42 = xor i32 %41, -1
  %43 = add i32 %119, %42
  %44 = sext i32 %43 to i64
  %45 = getelementptr inbounds [100 x i32], [100 x i32]* %3, i64 0, i64 %44
  %46 = shufflevector <4 x i32> %37, <4 x i32> poison, <4 x i32> <i32 3, i32 2, i32 1, i32 0>
  %47 = getelementptr inbounds i32, i32* %45, i64 -3
  %48 = bitcast i32* %47 to <4 x i32>*
  store <4 x i32> %46, <4 x i32>* %48, align 4, !tbaa !5
  %49 = shufflevector <4 x i32> %40, <4 x i32> poison, <4 x i32> <i32 3, i32 2, i32 1, i32 0>
  %50 = getelementptr inbounds i32, i32* %45, i64 -7
  %51 = bitcast i32* %50 to <4 x i32>*
  store <4 x i32> %49, <4 x i32>* %51, align 4, !tbaa !5
  %52 = or i64 %33, 8
  %53 = getelementptr inbounds [100 x i32], [100 x i32]* %2, i64 0, i64 %52
  %54 = bitcast i32* %53 to <4 x i32>*
  %55 = load <4 x i32>, <4 x i32>* %54, align 16, !tbaa !5
  %56 = getelementptr inbounds i32, i32* %53, i64 4
  %57 = bitcast i32* %56 to <4 x i32>*
  %58 = load <4 x i32>, <4 x i32>* %57, align 16, !tbaa !5
  %59 = trunc i64 %52 to i32
  %60 = xor i32 %59, -1
  %61 = add i32 %119, %60
  %62 = sext i32 %61 to i64
  %63 = getelementptr inbounds [100 x i32], [100 x i32]* %3, i64 0, i64 %62
  %64 = shufflevector <4 x i32> %55, <4 x i32> poison, <4 x i32> <i32 3, i32 2, i32 1, i32 0>
  %65 = getelementptr inbounds i32, i32* %63, i64 -3
  %66 = bitcast i32* %65 to <4 x i32>*
  store <4 x i32> %64, <4 x i32>* %66, align 4, !tbaa !5
  %67 = shufflevector <4 x i32> %58, <4 x i32> poison, <4 x i32> <i32 3, i32 2, i32 1, i32 0>
  %68 = getelementptr inbounds i32, i32* %63, i64 -7
  %69 = bitcast i32* %68 to <4 x i32>*
  store <4 x i32> %67, <4 x i32>* %69, align 4, !tbaa !5
  %70 = add nuw i64 %33, 16
  %71 = add i64 %34, -2
  %72 = icmp eq i64 %71, 0
  br i1 %72, label %73, label %32, !llvm.loop !9

73:                                               ; preds = %32, %23
  %74 = phi i64 [ 0, %23 ], [ %70, %32 ]
  %75 = icmp eq i64 %28, 0
  br i1 %75, label %94, label %76

76:                                               ; preds = %73
  %77 = getelementptr inbounds [100 x i32], [100 x i32]* %2, i64 0, i64 %74
  %78 = bitcast i32* %77 to <4 x i32>*
  %79 = load <4 x i32>, <4 x i32>* %78, align 16, !tbaa !5
  %80 = getelementptr inbounds i32, i32* %77, i64 4
  %81 = bitcast i32* %80 to <4 x i32>*
  %82 = load <4 x i32>, <4 x i32>* %81, align 16, !tbaa !5
  %83 = trunc i64 %74 to i32
  %84 = xor i32 %83, -1
  %85 = add i32 %119, %84
  %86 = sext i32 %85 to i64
  %87 = getelementptr inbounds [100 x i32], [100 x i32]* %3, i64 0, i64 %86
  %88 = shufflevector <4 x i32> %79, <4 x i32> poison, <4 x i32> <i32 3, i32 2, i32 1, i32 0>
  %89 = getelementptr inbounds i32, i32* %87, i64 -3
  %90 = bitcast i32* %89 to <4 x i32>*
  store <4 x i32> %88, <4 x i32>* %90, align 4, !tbaa !5
  %91 = shufflevector <4 x i32> %82, <4 x i32> poison, <4 x i32> <i32 3, i32 2, i32 1, i32 0>
  %92 = getelementptr inbounds i32, i32* %87, i64 -7
  %93 = bitcast i32* %92 to <4 x i32>*
  store <4 x i32> %91, <4 x i32>* %93, align 4, !tbaa !5
  br label %94

94:                                               ; preds = %73, %76
  %95 = icmp eq i64 %24, %13
  br i1 %95, label %122, label %96

96:                                               ; preds = %15, %12, %94
  %97 = phi i64 [ 0, %15 ], [ 0, %12 ], [ %24, %94 ]
  %98 = xor i64 %97, -1
  %99 = and i64 %13, 1
  %100 = icmp eq i64 %99, 0
  br i1 %100, label %110, label %101

101:                                              ; preds = %96
  %102 = getelementptr inbounds [100 x i32], [100 x i32]* %2, i64 0, i64 %97
  %103 = load i32, i32* %102, align 16, !tbaa !5
  %104 = trunc i64 %97 to i32
  %105 = xor i32 %104, -1
  %106 = add i32 %119, %105
  %107 = sext i32 %106 to i64
  %108 = getelementptr inbounds [100 x i32], [100 x i32]* %3, i64 0, i64 %107
  store i32 %103, i32* %108, align 4, !tbaa !5
  %109 = or i64 %97, 1
  br label %110

110:                                              ; preds = %101, %96
  %111 = phi i64 [ %97, %96 ], [ %109, %101 ]
  %112 = sub nsw i64 0, %13
  %113 = icmp eq i64 %98, %112
  br i1 %113, label %122, label %124

114:                                              ; preds = %0, %114
  %115 = phi i64 [ %118, %114 ], [ 0, %0 ]
  %116 = getelementptr inbounds [100 x i32], [100 x i32]* %2, i64 0, i64 %115
  %117 = call nonnull align 8 dereferenceable(16) %"class.std::basic_istream"* @_ZNSirsERi(%"class.std::basic_istream"* nonnull align 8 dereferenceable(16) @_ZSt3cin, i32* nonnull align 4 dereferenceable(4) %116)
  %118 = add nuw nsw i64 %115, 1
  %119 = load i32, i32* %1, align 4, !tbaa !5
  %120 = sext i32 %119 to i64
  %121 = icmp slt i64 %118, %120
  br i1 %121, label %114, label %10, !llvm.loop !12

122:                                              ; preds = %110, %124, %94
  %123 = icmp sgt i32 %119, 1
  br i1 %123, label %143, label %156

124:                                              ; preds = %110, %124
  %125 = phi i64 [ %141, %124 ], [ %111, %110 ]
  %126 = getelementptr inbounds [100 x i32], [100 x i32]* %2, i64 0, i64 %125
  %127 = load i32, i32* %126, align 4, !tbaa !5
  %128 = trunc i64 %125 to i32
  %129 = xor i32 %128, -1
  %130 = add i32 %119, %129
  %131 = sext i32 %130 to i64
  %132 = getelementptr inbounds [100 x i32], [100 x i32]* %3, i64 0, i64 %131
  store i32 %127, i32* %132, align 4, !tbaa !5
  %133 = add nuw nsw i64 %125, 1
  %134 = getelementptr inbounds [100 x i32], [100 x i32]* %2, i64 0, i64 %133
  %135 = load i32, i32* %134, align 4, !tbaa !5
  %136 = trunc i64 %133 to i32
  %137 = xor i32 %136, -1
  %138 = add i32 %119, %137
  %139 = sext i32 %138 to i64
  %140 = getelementptr inbounds [100 x i32], [100 x i32]* %3, i64 0, i64 %139
  store i32 %135, i32* %140, align 4, !tbaa !5
  %141 = add nuw nsw i64 %125, 2
  %142 = icmp eq i64 %141, %13
  br i1 %142, label %122, label %124, !llvm.loop !13

143:                                              ; preds = %122, %143
  %144 = phi i64 [ %149, %143 ], [ 0, %122 ]
  %145 = getelementptr inbounds [100 x i32], [100 x i32]* %3, i64 0, i64 %144
  %146 = load i32, i32* %145, align 4, !tbaa !5
  %147 = call nonnull align 8 dereferenceable(8) %"class.std::basic_ostream"* @_ZNSolsEi(%"class.std::basic_ostream"* nonnull align 8 dereferenceable(8) @_ZSt4cout, i32 %146)
  %148 = call nonnull align 8 dereferenceable(8) %"class.std::basic_ostream"* @_ZSt16__ostream_insertIcSt11char_traitsIcEERSt13basic_ostreamIT_T0_ES6_PKS3_l(%"class.std::basic_ostream"* nonnull align 8 dereferenceable(8) %147, i8* nonnull getelementptr inbounds ([2 x i8], [2 x i8]* @.str, i64 0, i64 0), i64 1)
  %149 = add nuw nsw i64 %144, 1
  %150 = load i32, i32* %1, align 4, !tbaa !5
  %151 = add nsw i32 %150, -1
  %152 = sext i32 %151 to i64
  %153 = icmp slt i64 %149, %152
  br i1 %153, label %143, label %154, !llvm.loop !14

154:                                              ; preds = %143
  %155 = and i64 %149, 4294967295
  br label %156

156:                                              ; preds = %0, %10, %154, %122
  %157 = phi i64 [ 0, %122 ], [ %155, %154 ], [ 0, %10 ], [ 0, %0 ]
  %158 = getelementptr inbounds [100 x i32], [100 x i32]* %3, i64 0, i64 %157
  %159 = load i32, i32* %158, align 4, !tbaa !5
  %160 = call nonnull align 8 dereferenceable(8) %"class.std::basic_ostream"* @_ZNSolsEi(%"class.std::basic_ostream"* nonnull align 8 dereferenceable(8) @_ZSt4cout, i32 %159)
  %161 = bitcast %"class.std::basic_ostream"* %160 to i8**
  %162 = load i8*, i8** %161, align 8, !tbaa !15
  %163 = getelementptr i8, i8* %162, i64 -24
  %164 = bitcast i8* %163 to i64*
  %165 = load i64, i64* %164, align 8
  %166 = bitcast %"class.std::basic_ostream"* %160 to i8*
  %167 = add nsw i64 %165, 240
  %168 = getelementptr inbounds i8, i8* %166, i64 %167
  %169 = bitcast i8* %168 to %"class.std::ctype"**
  %170 = load %"class.std::ctype"*, %"class.std::ctype"** %169, align 8, !tbaa !17
  %171 = icmp eq %"class.std::ctype"* %170, null
  br i1 %171, label %172, label %173

172:                                              ; preds = %156
  call void @_ZSt16__throw_bad_castv() #8
  unreachable

173:                                              ; preds = %156
  %174 = getelementptr inbounds %"class.std::ctype", %"class.std::ctype"* %170, i64 0, i32 8
  %175 = load i8, i8* %174, align 8, !tbaa !21
  %176 = icmp eq i8 %175, 0
  br i1 %176, label %180, label %177

177:                                              ; preds = %173
  %178 = getelementptr inbounds %"class.std::ctype", %"class.std::ctype"* %170, i64 0, i32 9, i64 10
  %179 = load i8, i8* %178, align 1, !tbaa !23
  br label %186

180:                                              ; preds = %173
  call void @_ZNKSt5ctypeIcE13_M_widen_initEv(%"class.std::ctype"* nonnull align 8 dereferenceable(570) %170)
  %181 = bitcast %"class.std::ctype"* %170 to i8 (%"class.std::ctype"*, i8)***
  %182 = load i8 (%"class.std::ctype"*, i8)**, i8 (%"class.std::ctype"*, i8)*** %181, align 8, !tbaa !15
  %183 = getelementptr inbounds i8 (%"class.std::ctype"*, i8)*, i8 (%"class.std::ctype"*, i8)** %182, i64 6
  %184 = load i8 (%"class.std::ctype"*, i8)*, i8 (%"class.std::ctype"*, i8)** %183, align 8
  %185 = call signext i8 %184(%"class.std::ctype"* nonnull align 8 dereferenceable(570) %170, i8 signext 10)
  br label %186

186:                                              ; preds = %177, %180
  %187 = phi i8 [ %179, %177 ], [ %185, %180 ]
  %188 = call nonnull align 8 dereferenceable(8) %"class.std::basic_ostream"* @_ZNSo3putEc(%"class.std::basic_ostream"* nonnull align 8 dereferenceable(8) %160, i8 signext %187)
  %189 = call nonnull align 8 dereferenceable(8) %"class.std::basic_ostream"* @_ZNSo5flushEv(%"class.std::basic_ostream"* nonnull align 8 dereferenceable(8) %188)
  call void @llvm.lifetime.end.p0i8(i64 400, i8* nonnull %6) #7
  call void @llvm.lifetime.end.p0i8(i64 400, i8* nonnull %5) #7
  call void @llvm.lifetime.end.p0i8(i64 4, i8* nonnull %4) #7
  ret i32 0
}

; Function Attrs: argmemonly mustprogress nofree nosync nounwind willreturn
declare void @llvm.lifetime.start.p0i8(i64 immarg, i8* nocapture) #4

declare nonnull align 8 dereferenceable(16) %"class.std::basic_istream"* @_ZNSirsERi(%"class.std::basic_istream"* nonnull align 8 dereferenceable(16), i32* nonnull align 4 dereferenceable(4)) local_unnamed_addr #0

declare nonnull align 8 dereferenceable(8) %"class.std::basic_ostream"* @_ZNSolsEi(%"class.std::basic_ostream"* nonnull align 8 dereferenceable(8), i32) local_unnamed_addr #0

; Function Attrs: argmemonly mustprogress nofree nosync nounwind willreturn
declare void @llvm.lifetime.end.p0i8(i64 immarg, i8* nocapture) #4

declare nonnull align 8 dereferenceable(8) %"class.std::basic_ostream"* @_ZSt16__ostream_insertIcSt11char_traitsIcEERSt13basic_ostreamIT_T0_ES6_PKS3_l(%"class.std::basic_ostream"* nonnull align 8 dereferenceable(8), i8*, i64) local_unnamed_addr #0

declare nonnull align 8 dereferenceable(8) %"class.std::basic_ostream"* @_ZNSo3putEc(%"class.std::basic_ostream"* nonnull align 8 dereferenceable(8), i8 signext) local_unnamed_addr #0

declare nonnull align 8 dereferenceable(8) %"class.std::basic_ostream"* @_ZNSo5flushEv(%"class.std::basic_ostream"* nonnull align 8 dereferenceable(8)) local_unnamed_addr #0

; Function Attrs: noreturn
declare void @_ZSt16__throw_bad_castv() local_unnamed_addr #5

declare void @_ZNKSt5ctypeIcE13_M_widen_initEv(%"class.std::ctype"* nonnull align 8 dereferenceable(570)) local_unnamed_addr #0

; Function Attrs: sspstrong uwtable
define internal void @_GLOBAL__sub_I_4795.cpp() #6 section ".text.startup" {
  tail call void @_ZNSt8ios_base4InitC1Ev(%"class.std::ios_base::Init"* nonnull align 1 dereferenceable(1) @_ZStL8__ioinit)
  %1 = tail call i32 @__cxa_atexit(void (i8*)* bitcast (void (%"class.std::ios_base::Init"*)* @_ZNSt8ios_base4InitD1Ev to void (i8*)*), i8* getelementptr inbounds (%"class.std::ios_base::Init", %"class.std::ios_base::Init"* @_ZStL8__ioinit, i64 0, i32 0), i8* nonnull @__dso_handle) #7
  ret void
}


!llvm.module.flags = !{!0, !1, !2, !3}
!llvm.ident = !{!4}

!0 = !{i32 1, !"wchar_size", i32 4}
!1 = !{i32 7, !"PIC Level", i32 2}
!2 = !{i32 7, !"PIE Level", i32 2}
!3 = !{i32 7, !"uwtable", i32 1}
!4 = !{!"clang version 13.0.0"}
!5 = !{!6, !6, i64 0}
!6 = !{!"int", !7, i64 0}
!7 = !{!"omnipotent char", !8, i64 0}
!8 = !{!"Simple C++ TBAA"}
!9 = distinct !{!9, !10, !11}
!10 = !{!"llvm.loop.mustprogress"}
!11 = !{!"llvm.loop.isvectorized", i32 1}
!12 = distinct !{!12, !10}
!13 = distinct !{!13, !10, !11}
!14 = distinct !{!14, !10}
!15 = !{!16, !16, i64 0}
!16 = !{!"vtable pointer", !8, i64 0}
!17 = !{!18, !19, i64 240}
!18 = !{!"_ZTSSt9basic_iosIcSt11char_traitsIcEE", !19, i64 216, !7, i64 224, !20, i64 225, !19, i64 232, !19, i64 240, !19, i64 248, !19, i64 256}
!19 = !{!"any pointer", !7, i64 0}
!20 = !{!"bool", !7, i64 0}
!21 = !{!22, !7, i64 56}
!22 = !{!"_ZTSSt5ctypeIcE", !19, i64 16, !20, i64 24, !19, i64 32, !19, i64 40, !19, i64 48, !7, i64 56, !7, i64 57, !7, i64 313, !7, i64 569}
!23 = !{!7, !7, i64 0}
